target datalayout = "e-m:e-p270:32:32-p271:32:32-p272:64:64-i64:64-i128:128-f80:128-n8:16:32:64-S128"
target triple = "x86_64-pc-linux-gnu"

%struct.Abc_Cex_t_ = type { i32, i32, i32, i32, i32, [0 x i32] }

; Function Attrs: inlinehint nounwind uwtable
define internal i32 @Abc_BitWordNum(i32 noundef %0) #2 {
  %2 = alloca i32, align 4
  store i32 %0, ptr %2, align 4, !tbaa !3
  %3 = load i32, ptr %2, align 4, !tbaa !3
  %4 = ashr i32 %3, 5
  %5 = load i32, ptr %2, align 4, !tbaa !3
  %6 = and i32 %5, 31
  %7 = icmp sgt i32 %6, 0
  %8 = zext i1 %7 to i32
  %9 = add nsw i32 %4, %8
  ret i32 %9
}

; Function Attrs: inlinehint nounwind uwtable
define internal void @Abc_InfoSetBit(ptr noundef %0, i32 noundef %1) #2 {
  %3 = alloca ptr, align 8
  %4 = alloca i32, align 4
  store ptr %0, ptr %3, align 8, !tbaa !16
  store i32 %1, ptr %4, align 4, !tbaa !3
  %5 = load i32, ptr %4, align 4, !tbaa !3
  %6 = and i32 %5, 31
  %7 = shl i32 1, %6
  %8 = load ptr, ptr %3, align 8, !tbaa !16
  %9 = load i32, ptr %4, align 4, !tbaa !3
  %10 = ashr i32 %9, 5
  %11 = sext i32 %10 to i64
  %12 = getelementptr inbounds i32, ptr %8, i64 %11
  %13 = load i32, ptr %12, align 4, !tbaa !3
  %14 = or i32 %13, %7
  store i32 %14, ptr %12, align 4, !tbaa !3
  ret void
}

; Function Attrs: inlinehint nounwind uwtable
define internal i32 @Abc_InfoHasBit(ptr noundef %0, i32 noundef %1) #2 {
  %3 = alloca ptr, align 8
  %4 = alloca i32, align 4
  store ptr %0, ptr %3, align 8, !tbaa !16
  store i32 %1, ptr %4, align 4, !tbaa !3
  %5 = load ptr, ptr %3, align 8, !tbaa !16
  %6 = load i32, ptr %4, align 4, !tbaa !3
  %7 = ashr i32 %6, 5
  %8 = sext i32 %7 to i64
  %9 = getelementptr inbounds i32, ptr %5, i64 %8
  %10 = load i32, ptr %9, align 4, !tbaa !3
  %11 = load i32, ptr %4, align 4, !tbaa !3
  %12 = and i32 %11, 31
  %13 = shl i32 1, %12
  %14 = and i32 %10, %13
  %15 = icmp ugt i32 %14, 0
  %16 = zext i1 %15 to i32
  ret i32 %16
}

; Function Attrs: nounwind uwtable
define ptr @Abc_CexAlloc(i32 noundef %0, i32 noundef %1, i32 noundef %2) #0 {
  %4 = alloca i32, align 4
  %5 = alloca i32, align 4
  %6 = alloca i32, align 4
  %7 = alloca ptr, align 8
  %8 = alloca i32, align 4
  store i32 %0, ptr %4, align 4, !tbaa !3
  store i32 %1, ptr %5, align 4, !tbaa !3
  store i32 %2, ptr %6, align 4, !tbaa !3
  call void @llvm.lifetime.start.p0(i64 8, ptr %7) #8
  call void @llvm.lifetime.start.p0(i64 4, ptr %8) #8
  %9 = load i32, ptr %4, align 4, !tbaa !3
  %10 = load i32, ptr %5, align 4, !tbaa !3
  %11 = load i32, ptr %6, align 4, !tbaa !3
  %12 = mul nsw i32 %10, %11
  %13 = add nsw i32 %9, %12
  %14 = call i32 @Abc_BitWordNum(i32 noundef %13)
  store i32 %14, ptr %8, align 4, !tbaa !3
  %15 = load i32, ptr %8, align 4, !tbaa !3
  %16 = sext i32 %15 to i64
  %17 = mul i64 4, %16
  %18 = add i64 20, %17
  %19 = mul i64 1, %18
  %20 = call noalias ptr @malloc(i64 noundef %19) #9
  store ptr %20, ptr %7, align 8, !tbaa !7
  %21 = load ptr, ptr %7, align 8, !tbaa !7
  %22 = load i32, ptr %8, align 4, !tbaa !3
  %23 = sext i32 %22 to i64
  %24 = mul i64 4, %23
  %25 = add i64 20, %24
  call void @llvm.memset.p0.i64(ptr align 4 %21, i8 0, i64 %25, i1 false)
  %26 = load i32, ptr %4, align 4, !tbaa !3
  %27 = load ptr, ptr %7, align 8, !tbaa !7
  %28 = getelementptr inbounds nuw %struct.Abc_Cex_t_, ptr %27, i32 0, i32 2
  store i32 %26, ptr %28, align 4, !tbaa !10
  %29 = load i32, ptr %5, align 4, !tbaa !3
  %30 = load ptr, ptr %7, align 8, !tbaa !7
  %31 = getelementptr inbounds nuw %struct.Abc_Cex_t_, ptr %30, i32 0, i32 3
  store i32 %29, ptr %31, align 4, !tbaa !12
  %32 = load i32, ptr %4, align 4, !tbaa !3
  %33 = load i32, ptr %5, align 4, !tbaa !3
  %34 = load i32, ptr %6, align 4, !tbaa !3
  %35 = mul nsw i32 %33, %34
  %36 = add nsw i32 %32, %35
  %37 = load ptr, ptr %7, align 8, !tbaa !7
  %38 = getelementptr inbounds nuw %struct.Abc_Cex_t_, ptr %37, i32 0, i32 4
  store i32 %36, ptr %38, align 4, !tbaa !13
  %39 = load ptr, ptr %7, align 8, !tbaa !7
  call void @llvm.lifetime.end.p0(i64 4, ptr %8) #8
  call void @llvm.lifetime.end.p0(i64 8, ptr %7) #8
  ret ptr %39
}

; Function Attrs: nounwind uwtable
define ptr @Abc_CexTransformUndc(ptr noundef %0, ptr noundef %1) #0 {
  %3 = alloca ptr, align 8
  %4 = alloca ptr, align 8
  %5 = alloca ptr, align 8
  %6 = alloca i32, align 4
  %7 = alloca i32, align 4
  %8 = alloca i32, align 4
  %9 = alloca i32, align 4
  %10 = alloca i32, align 4
  %11 = alloca i32, align 4
  store ptr %0, ptr %3, align 8, !tbaa !7
  store ptr %1, ptr %4, align 8, !tbaa !41
  call void @llvm.lifetime.start.p0(i64 8, ptr %5) #8
  call void @llvm.lifetime.start.p0(i64 4, ptr %6) #8
  %12 = load ptr, ptr %4, align 8, !tbaa !41
  %13 = call i64 @strlen(ptr noundef %12) #10
  %14 = trunc i64 %13 to i32
  store i32 %14, ptr %6, align 4, !tbaa !3
  call void @llvm.lifetime.start.p0(i64 4, ptr %7) #8
  call void @llvm.lifetime.start.p0(i64 4, ptr %8) #8
  call void @llvm.lifetime.start.p0(i64 4, ptr %9) #8
  call void @llvm.lifetime.start.p0(i64 4, ptr %10) #8
  store i32 0, ptr %10, align 4, !tbaa !3
  call void @llvm.lifetime.start.p0(i64 4, ptr %11) #8
  store i32 0, ptr %11, align 4, !tbaa !3
  store i32 0, ptr %7, align 4, !tbaa !3
  br label %15

15:                                               ; preds = %40, %2
  %16 = load i32, ptr %7, align 4, !tbaa !3
  %17 = load i32, ptr %6, align 4, !tbaa !3
  %18 = icmp slt i32 %16, %17
  br i1 %18, label %19, label %43

19:                                               ; preds = %15
  %20 = load ptr, ptr %4, align 8, !tbaa !41
  %21 = load i32, ptr %7, align 4, !tbaa !3
  %22 = sext i32 %21 to i64
  %23 = getelementptr inbounds i8, ptr %20, i64 %22
  %24 = load i8, ptr %23, align 1, !tbaa !43
  %25 = sext i8 %24 to i32
  %26 = icmp eq i32 %25, 120
  br i1 %26, label %35, label %27

27:                                               ; preds = %19
  %28 = load ptr, ptr %4, align 8, !tbaa !41
  %29 = load i32, ptr %7, align 4, !tbaa !3
  %30 = sext i32 %29 to i64
  %31 = getelementptr inbounds i8, ptr %28, i64 %30
  %32 = load i8, ptr %31, align 1, !tbaa !43
  %33 = sext i8 %32 to i32
  %34 = icmp eq i32 %33, 88
  br label %35

35:                                               ; preds = %27, %19
  %36 = phi i1 [ true, %19 ], [ %34, %27 ]
  %37 = zext i1 %36 to i32
  %38 = load i32, ptr %11, align 4, !tbaa !3
  %39 = add nsw i32 %38, %37
  store i32 %39, ptr %11, align 4, !tbaa !3
  br label %40

40:                                               ; preds = %35
  %41 = load i32, ptr %7, align 4, !tbaa !3
  %42 = add nsw i32 %41, 1
  store i32 %42, ptr %7, align 4, !tbaa !3
  br label %15, !llvm.loop !44

43:                                               ; preds = %15
  %44 = load i32, ptr %6, align 4, !tbaa !3
  %45 = load ptr, ptr %3, align 8, !tbaa !7
  %46 = getelementptr inbounds nuw %struct.Abc_Cex_t_, ptr %45, i32 0, i32 3
  %47 = load i32, ptr %46, align 4, !tbaa !12
  %48 = load i32, ptr %11, align 4, !tbaa !3
  %49 = sub nsw i32 %47, %48
  %50 = load ptr, ptr %3, align 8, !tbaa !7
  %51 = getelementptr inbounds nuw %struct.Abc_Cex_t_, ptr %50, i32 0, i32 1
  %52 = load i32, ptr %51, align 4, !tbaa !15
  %53 = add nsw i32 %52, 1
  %54 = call ptr @Abc_CexAlloc(i32 noundef %44, i32 noundef %49, i32 noundef %53)
  store ptr %54, ptr %5, align 8, !tbaa !7
  %55 = load ptr, ptr %3, align 8, !tbaa !7
  %56 = getelementptr inbounds nuw %struct.Abc_Cex_t_, ptr %55, i32 0, i32 0
  %57 = load i32, ptr %56, align 4, !tbaa !14
  %58 = load ptr, ptr %5, align 8, !tbaa !7
  %59 = getelementptr inbounds nuw %struct.Abc_Cex_t_, ptr %58, i32 0, i32 0
  store i32 %57, ptr %59, align 4, !tbaa !14
  %60 = load ptr, ptr %3, align 8, !tbaa !7
  %61 = getelementptr inbounds nuw %struct.Abc_Cex_t_, ptr %60, i32 0, i32 1
  %62 = load i32, ptr %61, align 4, !tbaa !15
  %63 = load ptr, ptr %5, align 8, !tbaa !7
  %64 = getelementptr inbounds nuw %struct.Abc_Cex_t_, ptr %63, i32 0, i32 1
  store i32 %62, ptr %64, align 4, !tbaa !15
  store i32 0, ptr %9, align 4, !tbaa !3
  br label %65

65:                                               ; preds = %136, %43
  %66 = load i32, ptr %9, align 4, !tbaa !3
  %67 = load i32, ptr %6, align 4, !tbaa !3
  %68 = icmp slt i32 %66, %67
  br i1 %68, label %69, label %139

69:                                               ; preds = %65
  %70 = load ptr, ptr %4, align 8, !tbaa !41
  %71 = load i32, ptr %9, align 4, !tbaa !3
  %72 = sext i32 %71 to i64
  %73 = getelementptr inbounds i8, ptr %70, i64 %72
  %74 = load i8, ptr %73, align 1, !tbaa !43
  %75 = sext i8 %74 to i32
  %76 = icmp eq i32 %75, 49
  br i1 %76, label %110, label %77

77:                                               ; preds = %69
  %78 = load ptr, ptr %4, align 8, !tbaa !41
  %79 = load i32, ptr %9, align 4, !tbaa !3
  %80 = sext i32 %79 to i64
  %81 = getelementptr inbounds i8, ptr %78, i64 %80
  %82 = load i8, ptr %81, align 1, !tbaa !43
  %83 = sext i8 %82 to i32
  %84 = icmp eq i32 %83, 120
  br i1 %84, label %93, label %85

85:                                               ; preds = %77
  %86 = load ptr, ptr %4, align 8, !tbaa !41
  %87 = load i32, ptr %9, align 4, !tbaa !3
  %88 = sext i32 %87 to i64
  %89 = getelementptr inbounds i8, ptr %86, i64 %88
  %90 = load i8, ptr %89, align 1, !tbaa !43
  %91 = sext i8 %90 to i32
  %92 = icmp eq i32 %91, 88
  br i1 %92, label %93, label %115

93:                                               ; preds = %85, %77
  %94 = load ptr, ptr %3, align 8, !tbaa !7
  %95 = getelementptr inbounds nuw %struct.Abc_Cex_t_, ptr %94, i32 0, i32 5
  %96 = getelementptr inbounds [0 x i32], ptr %95, i64 0, i64 0
  %97 = load ptr, ptr %3, align 8, !tbaa !7
  %98 = getelementptr inbounds nuw %struct.Abc_Cex_t_, ptr %97, i32 0, i32 2
  %99 = load i32, ptr %98, align 4, !tbaa !10
  %100 = load ptr, ptr %3, align 8, !tbaa !7
  %101 = getelementptr inbounds nuw %struct.Abc_Cex_t_, ptr %100, i32 0, i32 3
  %102 = load i32, ptr %101, align 4, !tbaa !12
  %103 = add nsw i32 %99, %102
  %104 = load i32, ptr %11, align 4, !tbaa !3
  %105 = sub nsw i32 %103, %104
  %106 = load i32, ptr %10, align 4, !tbaa !3
  %107 = add nsw i32 %105, %106
  %108 = call i32 @Abc_InfoHasBit(ptr noundef %96, i32 noundef %107)
  %109 = icmp ne i32 %108, 0
  br i1 %109, label %110, label %115

110:                                              ; preds = %93, %69
  %111 = load ptr, ptr %5, align 8, !tbaa !7
  %112 = getelementptr inbounds nuw %struct.Abc_Cex_t_, ptr %111, i32 0, i32 5
  %113 = getelementptr inbounds [0 x i32], ptr %112, i64 0, i64 0
  %114 = load i32, ptr %9, align 4, !tbaa !3
  call void @Abc_InfoSetBit(ptr noundef %113, i32 noundef %114)
  br label %115

115:                                              ; preds = %110, %93, %85
  %116 = load ptr, ptr %4, align 8, !tbaa !41
  %117 = load i32, ptr %9, align 4, !tbaa !3
  %118 = sext i32 %117 to i64
  %119 = getelementptr inbounds i8, ptr %116, i64 %118
  %120 = load i8, ptr %119, align 1, !tbaa !43
  %121 = sext i8 %120 to i32
  %122 = icmp eq i32 %121, 120
  br i1 %122, label %131, label %123

123:                                              ; preds = %115
  %124 = load ptr, ptr %4, align 8, !tbaa !41
  %125 = load i32, ptr %9, align 4, !tbaa !3
  %126 = sext i32 %125 to i64
  %127 = getelementptr inbounds i8, ptr %124, i64 %126
  %128 = load i8, ptr %127, align 1, !tbaa !43
  %129 = sext i8 %128 to i32
  %130 = icmp eq i32 %129, 88
  br label %131

131:                                              ; preds = %123, %115
  %132 = phi i1 [ true, %115 ], [ %130, %123 ]
  %133 = zext i1 %132 to i32
  %134 = load i32, ptr %10, align 4, !tbaa !3
  %135 = add nsw i32 %134, %133
  store i32 %135, ptr %10, align 4, !tbaa !3
  br label %136

136:                                              ; preds = %131
  %137 = load i32, ptr %9, align 4, !tbaa !3
  %138 = add nsw i32 %137, 1
  store i32 %138, ptr %9, align 4, !tbaa !3
  br label %65, !llvm.loop !45

139:                                              ; preds = %65
  store i32 0, ptr %8, align 4, !tbaa !3
  br label %140

140:                                              ; preds = %182, %139
  %141 = load i32, ptr %8, align 4, !tbaa !3
  %142 = load ptr, ptr %3, align 8, !tbaa !7
  %143 = getelementptr inbounds nuw %struct.Abc_Cex_t_, ptr %142, i32 0, i32 1
  %144 = load i32, ptr %143, align 4, !tbaa !15
  %145 = icmp sle i32 %141, %144
  br i1 %145, label %146, label %185

146:                                              ; preds = %140
  store i32 0, ptr %7, align 4, !tbaa !3
  br label %147

147:                                              ; preds = %176, %146
  %148 = load i32, ptr %7, align 4, !tbaa !3
  %149 = load ptr, ptr %5, align 8, !tbaa !7
  %150 = getelementptr inbounds nuw %struct.Abc_Cex_t_, ptr %149, i32 0, i32 3
  %151 = load i32, ptr %150, align 4, !tbaa !12
  %152 = icmp slt i32 %148, %151
  br i1 %152, label %153, label %181

153:                                              ; preds = %147
  %154 = load ptr, ptr %3, align 8, !tbaa !7
  %155 = getelementptr inbounds nuw %struct.Abc_Cex_t_, ptr %154, i32 0, i32 5
  %156 = getelementptr inbounds [0 x i32], ptr %155, i64 0, i64 0
  %157 = load ptr, ptr %3, align 8, !tbaa !7
  %158 = getelementptr inbounds nuw %struct.Abc_Cex_t_, ptr %157, i32 0, i32 2
  %159 = load i32, ptr %158, align 4, !tbaa !10
  %160 = load ptr, ptr %3, align 8, !tbaa !7
  %161 = getelementptr inbounds nuw %struct.Abc_Cex_t_, ptr %160, i32 0, i32 3
  %162 = load i32, ptr %161, align 4, !tbaa !12
  %163 = load i32, ptr %8, align 4, !tbaa !3
  %164 = mul nsw i32 %162, %163
  %165 = add nsw i32 %159, %164
  %166 = load i32, ptr %7, align 4, !tbaa !3
  %167 = add nsw i32 %165, %166
  %168 = call i32 @Abc_InfoHasBit(ptr noundef %156, i32 noundef %167)
  %169 = icmp ne i32 %168, 0
  br i1 %169, label %170, label %175

170:                                              ; preds = %153
  %171 = load ptr, ptr %5, align 8, !tbaa !7
  %172 = getelementptr inbounds nuw %struct.Abc_Cex_t_, ptr %171, i32 0, i32 5
  %173 = getelementptr inbounds [0 x i32], ptr %172, i64 0, i64 0
  %174 = load i32, ptr %9, align 4, !tbaa !3
  call void @Abc_InfoSetBit(ptr noundef %173, i32 noundef %174)
  br label %175

175:                                              ; preds = %170, %153
  br label %176

176:                                              ; preds = %175
  %177 = load i32, ptr %7, align 4, !tbaa !3
  %178 = add nsw i32 %177, 1
  store i32 %178, ptr %7, align 4, !tbaa !3
  %179 = load i32, ptr %9, align 4, !tbaa !3
  %180 = add nsw i32 %179, 1
  store i32 %180, ptr %9, align 4, !tbaa !3
  br label %147, !llvm.loop !46

181:                                              ; preds = %147
  br label %182

182:                                              ; preds = %181
  %183 = load i32, ptr %8, align 4, !tbaa !3
  %184 = add nsw i32 %183, 1
  store i32 %184, ptr %8, align 4, !tbaa !3
  br label %140, !llvm.loop !47

185:                                              ; preds = %140
  %186 = load ptr, ptr %5, align 8, !tbaa !7
  call void @llvm.lifetime.end.p0(i64 4, ptr %11) #8
  call void @llvm.lifetime.end.p0(i64 4, ptr %10) #8
  call void @llvm.lifetime.end.p0(i64 4, ptr %9) #8
  call void @llvm.lifetime.end.p0(i64 4, ptr %8) #8
  call void @llvm.lifetime.end.p0(i64 4, ptr %7) #8
  call void @llvm.lifetime.end.p0(i64 4, ptr %6) #8
  call void @llvm.lifetime.end.p0(i64 8, ptr %5) #8
  ret ptr %186
}