; Function Attrs: nofree nounwind memory(readwrite, argmem: read) uwtable
define noalias noundef ptr @Abc_CexTransformUndc(ptr noundef readonly captures(none) %0, ptr noundef readonly captures(none) %1) local_unnamed_addr #3 {
  %3 = tail call i64 @strlen(ptr noundef nonnull dereferenceable(1) %1) #17
  %4 = trunc i64 %3 to i32
  %5 = icmp sgt i32 %4, 0
  br i1 %5, label %.lr.ph.preheader, label %._crit_edge

.lr.ph.preheader:                                 ; preds = %2
  %wide.trip.count = and i64 %3, 2147483647
  br label %.lr.ph

.lr.ph:                                           ; preds = %.lr.ph.preheader, %.lr.ph
  %indvars.iv = phi i64 [ 0, %.lr.ph.preheader ], [ %indvars.iv.next, %.lr.ph ]
  %.066 = phi i32 [ 0, %.lr.ph.preheader ], [ %10, %.lr.ph ]
  %6 = getelementptr inbounds nuw i8, ptr %1, i64 %indvars.iv
  %7 = load i8, ptr %6, align 1, !tbaa !37
  %8 = and i8 %7, -33
  %narrow63 = icmp eq i8 %8, 88
  %9 = zext i1 %narrow63 to i32
  %10 = add nuw nsw i32 %.066, %9
  %indvars.iv.next = add nuw nsw i64 %indvars.iv, 1
  %exitcond.not = icmp eq i64 %indvars.iv.next, %wide.trip.count
  br i1 %exitcond.not, label %._crit_edge, label %.lr.ph, !llvm.loop !38

._crit_edge:                                      ; preds = %.lr.ph, %2
  %.0.lcssa = phi i32 [ 0, %2 ], [ %10, %.lr.ph ]
  %11 = getelementptr inbounds nuw i8, ptr %0, i64 12
  %12 = load i32, ptr %11, align 4, !tbaa !8
  %13 = sub i32 %12, %.0.lcssa
  %14 = getelementptr inbounds nuw i8, ptr %0, i64 4
  %15 = load i32, ptr %14, align 4, !tbaa !11
  %16 = add i32 %15, 1
  %17 = mul nsw i32 %16, %13
  %18 = add nsw i32 %17, %4
  %19 = ashr i32 %18, 5
  %20 = and i32 %18, 31
  %21 = icmp ne i32 %20, 0
  %22 = zext i1 %21 to i32
  %23 = add nsw i32 %19, %22
  %24 = sext i32 %23 to i64
  %25 = shl nsw i64 %24, 2
  %26 = add nsw i64 %25, 20
  %calloc.i = tail call ptr @calloc(i64 1, i64 %26)
  %27 = getelementptr inbounds nuw i8, ptr %calloc.i, i64 8
  store i32 %4, ptr %27, align 4, !tbaa !3
  %28 = getelementptr inbounds nuw i8, ptr %calloc.i, i64 12
  store i32 %13, ptr %28, align 4, !tbaa !8
  %29 = getelementptr inbounds nuw i8, ptr %calloc.i, i64 16
  store i32 %18, ptr %29, align 4, !tbaa !9
  %30 = load i32, ptr %0, align 4, !tbaa !10
  store i32 %30, ptr %calloc.i, align 4, !tbaa !10
  %31 = getelementptr inbounds nuw i8, ptr %calloc.i, i64 4
  store i32 %15, ptr %31, align 4, !tbaa !11
  br i1 %5, label %.lr.ph70, label %.preheader64

.lr.ph70:                                         ; preds = %._crit_edge
  %32 = getelementptr inbounds nuw i8, ptr %0, i64 20
  %33 = getelementptr inbounds nuw i8, ptr %0, i64 8
  %34 = getelementptr inbounds nuw i8, ptr %calloc.i, i64 20
  %wide.trip.count88 = and i64 %3, 2147483647
  br label %39

.preheader64:                                     ; preds = %62, %._crit_edge
  %.053.lcssa = phi i32 [ 0, %._crit_edge ], [ %4, %62 ]
  %.not77 = icmp slt i32 %15, 0
  br i1 %.not77, label %._crit_edge80, label %.preheader.lr.ph

.preheader.lr.ph:                                 ; preds = %.preheader64
  %35 = getelementptr inbounds nuw i8, ptr %0, i64 20
  %36 = getelementptr inbounds nuw i8, ptr %0, i64 8
  %37 = getelementptr inbounds nuw i8, ptr %calloc.i, i64 20
  %38 = icmp sgt i32 %13, 0
  br i1 %38, label %.preheader, label %._crit_edge80

39:                                               ; preds = %.lr.ph70, %62
  %indvars.iv85 = phi i64 [ 0, %.lr.ph70 ], [ %indvars.iv.next86, %62 ]
  %.05268 = phi i32 [ 0, %.lr.ph70 ], [ %65, %62 ]
  %40 = getelementptr inbounds nuw i8, ptr %1, i64 %indvars.iv85
  %41 = load i8, ptr %40, align 1, !tbaa !37
  switch i8 %41, label %62 [
    i8 49, label %53
    i8 120, label %42
    i8 88, label %42
  ]

42:                                               ; preds = %39, %39
  %43 = load i32, ptr %33, align 4, !tbaa !3
  %44 = add i32 %13, %.05268
  %45 = add i32 %44, %43
  %46 = ashr i32 %45, 5
  %47 = sext i32 %46 to i64
  %48 = getelementptr inbounds i32, ptr %32, i64 %47
  %49 = load i32, ptr %48, align 4, !tbaa !12
  %50 = and i32 %45, 31
  %51 = shl nuw i32 1, %50
  %52 = and i32 %51, %49
  %.not62 = icmp eq i32 %52, 0
  br i1 %.not62, label %62, label %53

53:                                               ; preds = %39, %42
  %54 = trunc nuw nsw i64 %indvars.iv85 to i32
  %55 = and i32 %54, 31
  %56 = shl nuw i32 1, %55
  %57 = lshr i64 %indvars.iv85, 5
  %58 = and i64 %57, 134217727
  %59 = getelementptr inbounds nuw i32, ptr %34, i64 %58
  %60 = load i32, ptr %59, align 4, !tbaa !12
  %61 = or i32 %60, %56
  store i32 %61, ptr %59, align 4, !tbaa !12
  br label %62

62:                                               ; preds = %39, %53, %42
  %63 = and i8 %41, -33
  %narrow = icmp eq i8 %63, 88
  %64 = zext i1 %narrow to i32
  %65 = add nuw nsw i32 %.05268, %64
  %indvars.iv.next86 = add nuw nsw i64 %indvars.iv85, 1
  %exitcond89.not = icmp eq i64 %indvars.iv.next86, %wide.trip.count88
  br i1 %exitcond89.not, label %.preheader64, label %39, !llvm.loop !39

.preheader:                                       ; preds = %.preheader.lr.ph, %._crit_edge75
  %66 = phi i32 [ %93, %._crit_edge75 ], [ %13, %.preheader.lr.ph ]
  %67 = phi i32 [ %94, %._crit_edge75 ], [ %13, %.preheader.lr.ph ]
  %.179 = phi i32 [ %.2.lcssa, %._crit_edge75 ], [ %.053.lcssa, %.preheader.lr.ph ]
  %.05478 = phi i32 [ %95, %._crit_edge75 ], [ 0, %.preheader.lr.ph ]
  %68 = icmp sgt i32 %67, 0
  br i1 %68, label %.lr.ph74, label %._crit_edge75

.lr.ph74:                                         ; preds = %.preheader
  %69 = load i32, ptr %36, align 4, !tbaa !3
  %70 = mul nsw i32 %.05478, %12
  %invariant.op = add i32 %70, %69
  br label %71

71:                                               ; preds = %.lr.ph74, %88
  %72 = phi i32 [ %66, %.lr.ph74 ], [ %89, %88 ]
  %.273 = phi i32 [ %.179, %.lr.ph74 ], [ %91, %88 ]
  %.15672 = phi i32 [ 0, %.lr.ph74 ], [ %90, %88 ]
  %.reass = add i32 %.15672, %invariant.op
  %73 = ashr i32 %.reass, 5
  %74 = sext i32 %73 to i64
  %75 = getelementptr inbounds i32, ptr %35, i64 %74
  %76 = load i32, ptr %75, align 4, !tbaa !12
  %77 = and i32 %.reass, 31
  %78 = shl nuw i32 1, %77
  %79 = and i32 %78, %76
  %.not61 = icmp eq i32 %79, 0
  br i1 %.not61, label %88, label %80

80:                                               ; preds = %71
  %81 = and i32 %.273, 31
  %82 = shl nuw i32 1, %81
  %83 = ashr i32 %.273, 5
  %84 = sext i32 %83 to i64
  %85 = getelementptr inbounds i32, ptr %37, i64 %84
  %86 = load i32, ptr %85, align 4, !tbaa !12
  %87 = or i32 %86, %82
  store i32 %87, ptr %85, align 4, !tbaa !12
  %.pre = load i32, ptr %28, align 4, !tbaa !8
  br label %88

88:                                               ; preds = %71, %80
  %89 = phi i32 [ %72, %71 ], [ %.pre, %80 ]
  %90 = add nuw nsw i32 %.15672, 1
  %91 = add nsw i32 %.273, 1
  %92 = icmp slt i32 %90, %89
  br i1 %92, label %71, label %._crit_edge75, !llvm.loop !40

._crit_edge75:                                    ; preds = %88, %.preheader
  %93 = phi i32 [ %66, %.preheader ], [ %89, %88 ]
  %94 = phi i32 [ %67, %.preheader ], [ %89, %88 ]
  %.2.lcssa = phi i32 [ %.179, %.preheader ], [ %91, %88 ]
  %95 = add nuw i32 %.05478, 1
  %exitcond90.not = icmp eq i32 %.05478, %15
  br i1 %exitcond90.not, label %._crit_edge80, label %.preheader, !llvm.loop !41

._crit_edge80:                                    ; preds = %._crit_edge75, %.preheader.lr.ph, %.preheader64
  ret ptr %calloc.i
}